target datalayout = "e-m:e-p270:32:32-p271:32:32-p272:64:64-i64:64-i128:128-f80:128-n8:16:32:64-S128"
target triple = "x86_64-pc-linux-gnu"

%struct.JSValue = type { %union.JSValueUnion, i64 }
%union.JSValueUnion = type { double }

; Function Attrs: nounwind uwtable
define internal i32 @JS_IsException(i64 %0, i64 %1) #0 {
  %3 = alloca %struct.JSValue, align 8
  %4 = getelementptr inbounds { i64, i64 }, ptr %3, i32 0, i32 0
  store i64 %0, ptr %4, align 8
  %5 = getelementptr inbounds { i64, i64 }, ptr %3, i32 0, i32 1
  store i64 %1, ptr %5, align 8
  %6 = getelementptr inbounds %struct.JSValue, ptr %3, i32 0, i32 1
  %7 = load i64, ptr %6, align 8
  %8 = trunc i64 %7 to i32
  %9 = icmp eq i32 %8, 6
  %10 = xor i1 %9, true
  %11 = xor i1 %10, true
  %12 = zext i1 %11 to i32
  %13 = sext i32 %12 to i64
  %14 = trunc i64 %13 to i32
  ret i32 %14
}

; Function Attrs: nounwind uwtable
define internal { i64, i64 } @js_os_waitpid(ptr noundef %0, i64 %1, i64 %2, i32 noundef %3, ptr noundef %4) #0 {
  %6 = alloca %struct.JSValue, align 8
  %7 = alloca ptr, align 8
  %8 = alloca i32, align 4
  %9 = alloca %struct.JSValue, align 8
  %10 = alloca ptr, align 8
  %11 = alloca i32, align 4
  %12 = alloca %struct.JSValue, align 8
  %13 = alloca %struct.JSValue, align 8
  %14 = alloca ptr, align 8
  %15 = alloca i32, align 4
  %16 = alloca ptr, align 8
  %17 = alloca i32, align 4
  %18 = alloca i32, align 4
  %19 = alloca i32, align 4
  %20 = alloca i32, align 4
  %21 = alloca %struct.JSValue, align 8
  %22 = alloca %struct.JSValue, align 8
  %23 = alloca %struct.JSValue, align 8
  %24 = alloca %struct.JSValue, align 8
  %25 = getelementptr inbounds { i64, i64 }, ptr %13, i32 0, i32 0
  store i64 %1, ptr %25, align 8
  %26 = getelementptr inbounds { i64, i64 }, ptr %13, i32 0, i32 1
  store i64 %2, ptr %26, align 8
  store ptr %0, ptr %14, align 8
  store i32 %3, ptr %15, align 4
  store ptr %4, ptr %16, align 8
  %27 = load ptr, ptr %14, align 8
  %28 = load ptr, ptr %16, align 8
  %29 = getelementptr %struct.JSValue, ptr %28, i64 0
  %30 = getelementptr inbounds { i64, i64 }, ptr %29, i32 0, i32 0
  %31 = load i64, ptr %30, align 8
  %32 = getelementptr inbounds { i64, i64 }, ptr %29, i32 0, i32 1
  %33 = load i64, ptr %32, align 8
  %34 = call i32 @JS_ToInt32(ptr noundef %27, ptr noundef %17, i64 %31, i64 %33)
  %35 = icmp ne i32 %34, 0
  br i1 %35, label %36, label %39

36:                                               ; preds = %5
  %37 = getelementptr inbounds %struct.JSValue, ptr %12, i32 0, i32 0
  store i32 0, ptr %37, align 8
  %38 = getelementptr inbounds %struct.JSValue, ptr %12, i32 0, i32 1
  store i64 6, ptr %38, align 8
  br label %115

39:                                               ; preds = %5
  %40 = load ptr, ptr %14, align 8
  %41 = load ptr, ptr %16, align 8
  %42 = getelementptr %struct.JSValue, ptr %41, i64 1
  %43 = getelementptr inbounds { i64, i64 }, ptr %42, i32 0, i32 0
  %44 = load i64, ptr %43, align 8
  %45 = getelementptr inbounds { i64, i64 }, ptr %42, i32 0, i32 1
  %46 = load i64, ptr %45, align 8
  %47 = call i32 @JS_ToInt32(ptr noundef %40, ptr noundef %19, i64 %44, i64 %46)
  %48 = icmp ne i32 %47, 0
  br i1 %48, label %49, label %52

49:                                               ; preds = %39
  %50 = getelementptr inbounds %struct.JSValue, ptr %12, i32 0, i32 0
  store i32 0, ptr %50, align 8
  %51 = getelementptr inbounds %struct.JSValue, ptr %12, i32 0, i32 1
  store i64 6, ptr %51, align 8
  br label %115

52:                                               ; preds = %39
  %53 = load i32, ptr %17, align 4
  %54 = load i32, ptr %19, align 4
  %55 = call i32 @waitpid(i32 noundef %53, ptr noundef %18, i32 noundef %54)
  store i32 %55, ptr %20, align 4
  %56 = load i32, ptr %20, align 4
  %57 = icmp slt i32 %56, 0
  br i1 %57, label %58, label %62

58:                                               ; preds = %52
  %59 = call ptr @__errno_location() #10
  %60 = load i32, ptr %59, align 4
  %61 = sub i32 0, %60
  store i32 %61, ptr %20, align 4
  store i32 0, ptr %18, align 4
  br label %62

62:                                               ; preds = %58, %52
  %63 = load ptr, ptr %14, align 8
  %64 = call { i64, i64 } @JS_NewArray(ptr noundef %63)
  %65 = getelementptr inbounds { i64, i64 }, ptr %22, i32 0, i32 0
  %66 = extractvalue { i64, i64 } %64, 0
  store i64 %66, ptr %65, align 8
  %67 = getelementptr inbounds { i64, i64 }, ptr %22, i32 0, i32 1
  %68 = extractvalue { i64, i64 } %64, 1
  store i64 %68, ptr %67, align 8
  call void @llvm.memcpy.p0.p0.i64(ptr align 8 %21, ptr align 8 %22, i64 16, i1 false)
  %69 = getelementptr inbounds { i64, i64 }, ptr %21, i32 0, i32 0
  %70 = load i64, ptr %69, align 8
  %71 = getelementptr inbounds { i64, i64 }, ptr %21, i32 0, i32 1
  %72 = load i64, ptr %71, align 8
  %73 = call i32 @JS_IsException(i64 %70, i64 %72)
  %74 = icmp ne i32 %73, 0
  br i1 %74, label %75, label %76

75:                                               ; preds = %62
  call void @llvm.memcpy.p0.p0.i64(ptr align 8 %12, ptr align 8 %21, i64 16, i1 false)
  br label %115

76:                                               ; preds = %62
  %77 = load ptr, ptr %14, align 8
  %78 = load ptr, ptr %14, align 8
  %79 = load i32, ptr %20, align 4
  store ptr %78, ptr %7, align 8
  store i32 %79, ptr %8, align 4
  %80 = load i32, ptr %8, align 4
  store i32 %80, ptr %6, align 8
  %81 = getelementptr inbounds %struct.JSValue, ptr %6, i32 0, i32 1
  store i64 0, ptr %81, align 8
  %82 = load { i64, i64 }, ptr %6, align 8
  %83 = getelementptr inbounds { i64, i64 }, ptr %23, i32 0, i32 0
  %84 = extractvalue { i64, i64 } %82, 0
  store i64 %84, ptr %83, align 8
  %85 = getelementptr inbounds { i64, i64 }, ptr %23, i32 0, i32 1
  %86 = extractvalue { i64, i64 } %82, 1
  store i64 %86, ptr %85, align 8
  %87 = getelementptr inbounds { i64, i64 }, ptr %21, i32 0, i32 0
  %88 = load i64, ptr %87, align 8
  %89 = getelementptr inbounds { i64, i64 }, ptr %21, i32 0, i32 1
  %90 = load i64, ptr %89, align 8
  %91 = getelementptr inbounds { i64, i64 }, ptr %23, i32 0, i32 0
  %92 = load i64, ptr %91, align 8
  %93 = getelementptr inbounds { i64, i64 }, ptr %23, i32 0, i32 1
  %94 = load i64, ptr %93, align 8
  %95 = call i32 @JS_DefinePropertyValueUint32(ptr noundef %77, i64 %88, i64 %90, i32 noundef 0, i64 %92, i64 %94, i32 noundef 7)
  %96 = load ptr, ptr %14, align 8
  %97 = load ptr, ptr %14, align 8
  %98 = load i32, ptr %18, align 4
  store ptr %97, ptr %10, align 8
  store i32 %98, ptr %11, align 4
  %99 = load i32, ptr %11, align 4
  store i32 %99, ptr %9, align 8
  %100 = getelementptr inbounds %struct.JSValue, ptr %9, i32 0, i32 1
  store i64 0, ptr %100, align 8
  %101 = load { i64, i64 }, ptr %9, align 8
  %102 = getelementptr inbounds { i64, i64 }, ptr %24, i32 0, i32 0
  %103 = extractvalue { i64, i64 } %101, 0
  store i64 %103, ptr %102, align 8
  %104 = getelementptr inbounds { i64, i64 }, ptr %24, i32 0, i32 1
  %105 = extractvalue { i64, i64 } %101, 1
  store i64 %105, ptr %104, align 8
  %106 = getelementptr inbounds { i64, i64 }, ptr %21, i32 0, i32 0
  %107 = load i64, ptr %106, align 8
  %108 = getelementptr inbounds { i64, i64 }, ptr %21, i32 0, i32 1
  %109 = load i64, ptr %108, align 8
  %110 = getelementptr inbounds { i64, i64 }, ptr %24, i32 0, i32 0
  %111 = load i64, ptr %110, align 8
  %112 = getelementptr inbounds { i64, i64 }, ptr %24, i32 0, i32 1
  %113 = load i64, ptr %112, align 8
  %114 = call i32 @JS_DefinePropertyValueUint32(ptr noundef %96, i64 %107, i64 %109, i32 noundef 1, i64 %111, i64 %113, i32 noundef 7)
  call void @llvm.memcpy.p0.p0.i64(ptr align 8 %12, ptr align 8 %21, i64 16, i1 false)
  br label %115

115:                                              ; preds = %76, %75, %49, %36
  %116 = load { i64, i64 }, ptr %12, align 8
  ret { i64, i64 } %116
}