; Function Attrs: nounwind uwtable
define internal { i64, i64 } @js_os_waitpid(ptr noundef %0, i64 %1, i64 %2, i32 %3, ptr nocapture noundef readonly %4) #0 {
  %6 = alloca i32, align 4
  %7 = alloca i32, align 4
  %8 = alloca i32, align 4
  %9 = load i64, ptr %4, align 8
  %10 = getelementptr inbounds i8, ptr %4, i64 8
  %11 = load i64, ptr %10, align 8
  %12 = call i32 @JS_ToInt32(ptr noundef %0, ptr noundef nonnull %6, i64 %9, i64 %11) #29
  %.not = icmp eq i32 %12, 0
  br i1 %.not, label %13, label %38

13:                                               ; preds = %5
  %14 = getelementptr i8, ptr %4, i64 16
  %15 = load i64, ptr %14, align 8
  %16 = getelementptr i8, ptr %4, i64 24
  %17 = load i64, ptr %16, align 8
  %18 = call i32 @JS_ToInt32(ptr noundef %0, ptr noundef nonnull %8, i64 %15, i64 %17) #29
  %.not41 = icmp eq i32 %18, 0
  br i1 %.not41, label %19, label %38

19:                                               ; preds = %13
  %20 = load i32, ptr %6, align 4
  %21 = load i32, ptr %8, align 4
  %22 = call i32 @waitpid(i32 noundef %20, ptr noundef nonnull %7, i32 noundef %21) #29
  %23 = icmp slt i32 %22, 0
  br i1 %23, label %24, label %28

24:                                               ; preds = %19
  %25 = tail call ptr @__errno_location() #28
  %26 = load i32, ptr %25, align 4
  %27 = sub i32 0, %26
  store i32 0, ptr %7, align 4
  br label %28

28:                                               ; preds = %24, %19
  %.0 = phi i32 [ %27, %24 ], [ %22, %19 ]
  %29 = call { i64, i64 } @JS_NewArray(ptr noundef %0) #29
  %30 = extractvalue { i64, i64 } %29, 0
  %31 = extractvalue { i64, i64 } %29, 1
  %32 = and i64 %31, 4294967295
  %.not43 = icmp eq i64 %32, 6
  br i1 %.not43, label %33, label %34

33:                                               ; preds = %28
  %.sroa.5.0.extract.shift = and i64 %30, -4294967296
  br label %38

34:                                               ; preds = %28
  %.sroa.038.0.insert.ext = zext i32 %.0 to i64
  %35 = call i32 @JS_DefinePropertyValueUint32(ptr noundef %0, i64 %30, i64 %31, i32 noundef 0, i64 %.sroa.038.0.insert.ext, i64 0, i32 noundef 7) #29
  %36 = load i32, ptr %7, align 4
  %.sroa.033.0.insert.ext = zext i32 %36 to i64
  %37 = call i32 @JS_DefinePropertyValueUint32(ptr noundef %0, i64 %30, i64 %31, i32 noundef 1, i64 %.sroa.033.0.insert.ext, i64 0, i32 noundef 7) #29
  %.sroa.5.0.extract.shift25 = and i64 %30, -4294967296
  br label %38

38:                                               ; preds = %13, %5, %34, %33
  %.sroa.023.0 = phi i64 [ %30, %33 ], [ %30, %34 ], [ 0, %5 ], [ 0, %13 ]
  %.sroa.5.sroa.0.0 = phi i64 [ %.sroa.5.0.extract.shift, %33 ], [ %.sroa.5.0.extract.shift25, %34 ], [ 0, %5 ], [ 0, %13 ]
  %.sroa.5.sroa.3.0 = phi i64 [ %31, %33 ], [ %31, %34 ], [ 6, %5 ], [ 6, %13 ]
  %.sroa.023.0.insert.ext = and i64 %.sroa.023.0, 4294967295
  %.sroa.023.0.insert.insert = or disjoint i64 %.sroa.5.sroa.0.0, %.sroa.023.0.insert.ext
  %.fca.0.insert = insertvalue { i64, i64 } poison, i64 %.sroa.023.0.insert.insert, 0
  %.fca.1.insert = insertvalue { i64, i64 } %.fca.0.insert, i64 %.sroa.5.sroa.3.0, 1
  ret { i64, i64 } %.fca.1.insert
}